; Function Attrs: mustprogress uwtable
define hidden noalias noundef ptr @_ZN7datalog17lazy_table_plugin9mk_sparseERNS_16relation_managerE(ptr noundef nonnull align 8 dereferenceable(200) %0) local_unnamed_addr #3 align 2 {
  %2 = alloca %class.symbol, align 8
  call void @llvm.lifetime.start.p0(i64 8, ptr nonnull %2) #22
  call void @_ZN6symbolC1EPKc(ptr noundef nonnull align 8 dereferenceable(8) %2, ptr noundef nonnull @.str.1)
  %3 = call noundef ptr @_ZN7datalog16relation_manager16get_table_pluginERK6symbol(ptr noundef nonnull align 8 dereferenceable(200) %0, ptr noundef nonnull align 8 dereferenceable(8) %2)
  call void @llvm.lifetime.end.p0(i64 8, ptr nonnull %2) #22
  %.not = icmp eq ptr %3, null
  br i1 %.not, label %14, label %4

4:                                                ; preds = %1
  %5 = call noalias noundef ptr @_ZN6memory8allocateEm(i64 noundef 40)
  %6 = call ptr @_ZN7datalog17lazy_table_plugin7mk_nameERNS_12table_pluginE(ptr noundef nonnull align 8 dereferenceable(32) %3)
  %7 = getelementptr inbounds nuw i8, ptr %3, i64 24
  %8 = load ptr, ptr %7, align 8, !tbaa !65
  %9 = getelementptr inbounds nuw i8, ptr %5, i64 8
  store i32 -1, ptr %9, align 8, !tbaa !53
  %10 = getelementptr inbounds nuw i8, ptr %5, i64 16
  %11 = ptrtoint ptr %6 to i64
  store i64 %11, ptr %10, align 8, !tbaa !3
  %12 = getelementptr inbounds nuw i8, ptr %5, i64 24
  store ptr %8, ptr %12, align 8, !tbaa !80
  store ptr getelementptr inbounds nuw inrange(-16, 216) (i8, ptr @_ZTVN7datalog17lazy_table_pluginE, i64 16), ptr %5, align 8, !tbaa !27
  %13 = getelementptr inbounds nuw i8, ptr %5, i64 32
  store ptr %3, ptr %13, align 8, !tbaa !52
  br label %14

14:                                               ; preds = %1, %4
  %.0 = phi ptr [ %5, %4 ], [ null, %1 ]
  ret ptr %.0
}